; Function Attrs: nofree norecurse nosync nounwind memory(read, argmem: readwrite, inaccessiblemem: readwrite) uwtable
define internal fastcc i32 @rev_decode_block_int64_1(ptr noundef captures(none) %0, i32 noundef %1, i32 noundef %2, ptr noundef nonnull captures(none) %3) unnamed_addr #2 {
  %5 = alloca [4 x i64], align 256
  %6 = getelementptr inbounds nuw i8, ptr %0, i64 8
  %7 = load i64, ptr %6, align 8, !tbaa !19
  %8 = load i64, ptr %0, align 8, !tbaa !13
  %9 = icmp ult i64 %8, 6
  br i1 %9, label %10, label %20

10:                                               ; preds = %4
  %11 = getelementptr inbounds nuw i8, ptr %0, i64 16
  %12 = load ptr, ptr %11, align 8, !tbaa !17
  %13 = getelementptr inbounds nuw i8, ptr %12, i64 8
  store ptr %13, ptr %11, align 8, !tbaa !17
  %14 = load i64, ptr %12, align 8, !tbaa !18
  %15 = shl i64 %14, %8
  %16 = add i64 %15, %7
  %17 = add nuw nsw i64 %8, 58
  %18 = sub nuw nsw i64 6, %8
  %19 = lshr i64 %14, %18
  br label %stream_read_bits.exit

20:                                               ; preds = %4
  %21 = add i64 %8, -6
  %22 = lshr i64 %7, 6
  br label %stream_read_bits.exit

stream_read_bits.exit:                            ; preds = %10, %20
  %.sink = phi i64 [ %17, %10 ], [ %21, %20 ]
  %storemerge = phi i64 [ %19, %10 ], [ %22, %20 ]
  %.0.i.in = phi i64 [ %16, %10 ], [ %7, %20 ]
  store i64 %.sink, ptr %0, align 8, !tbaa !13
  store i64 %storemerge, ptr %6, align 8, !tbaa !19
  %23 = trunc i64 %.0.i.in to i32
  %24 = and i32 %23, 63
  %25 = add nuw nsw i32 %24, 1
  call void @llvm.lifetime.start.p0(i64 32, ptr nonnull %5) #8
  %26 = add i32 %2, -6
  %27 = call fastcc i32 @decode_ints_uint64(ptr noundef nonnull %0, i32 noundef %26, i32 noundef %25, ptr noundef %5)
  %28 = add i32 %27, 6
  %29 = icmp ult i32 %28, %1
  br i1 %29, label %30, label %52

30:                                               ; preds = %stream_read_bits.exit
  %31 = sub nuw i32 %1, %28
  %32 = zext i32 %31 to i64
  %33 = getelementptr inbounds nuw i8, ptr %0, i64 16
  %34 = load ptr, ptr %33, align 8, !tbaa !17
  %35 = getelementptr inbounds nuw i8, ptr %0, i64 24
  %36 = load ptr, ptr %35, align 8, !tbaa !25
  %37 = ptrtoint ptr %34 to i64
  %38 = ptrtoint ptr %36 to i64
  %39 = sub i64 %37, %38
  %40 = shl i64 %39, 3
  %41 = load i64, ptr %0, align 8, !tbaa !13
  %42 = sub i64 %40, %41
  %43 = add i64 %42, %32
  %44 = and i64 %43, 63
  %45 = lshr i64 %43, 6
  %46 = getelementptr inbounds nuw i64, ptr %36, i64 %45
  store ptr %46, ptr %33, align 8, !tbaa !17
  %.not.i.i = icmp eq i64 %44, 0
  br i1 %.not.i.i, label %stream_skip.exit, label %47

47:                                               ; preds = %30
  %48 = getelementptr inbounds nuw i8, ptr %46, i64 8
  store ptr %48, ptr %33, align 8, !tbaa !17
  %49 = load i64, ptr %46, align 8, !tbaa !18
  %50 = lshr i64 %49, %44
  %51 = sub nuw nsw i64 64, %44
  br label %stream_skip.exit

stream_skip.exit:                                 ; preds = %30, %47
  %.sink.i.i = phi i64 [ %50, %47 ], [ 0, %30 ]
  %storemerge.i.i = phi i64 [ %51, %47 ], [ 0, %30 ]
  store i64 %.sink.i.i, ptr %6, align 8, !tbaa !19
  store i64 %storemerge.i.i, ptr %0, align 8, !tbaa !13
  br label %52

52:                                               ; preds = %stream_skip.exit, %stream_read_bits.exit
  %.0 = phi i32 [ %1, %stream_skip.exit ], [ %28, %stream_read_bits.exit ]
  br label %53

53:                                               ; preds = %53, %52
  %.04.i = phi ptr [ %5, %52 ], [ %54, %53 ]
  %.03.i = phi ptr [ @perm_1, %52 ], [ %58, %53 ]
  %.0.i16 = phi i32 [ 4, %52 ], [ %62, %53 ]
  %54 = getelementptr inbounds nuw i8, ptr %.04.i, i64 8
  %55 = load i64, ptr %.04.i, align 8, !tbaa !18
  %56 = xor i64 %55, -6148914691236517206
  %57 = add i64 %56, 6148914691236517206
  %58 = getelementptr inbounds nuw i8, ptr %.03.i, i64 1
  %59 = load i8, ptr %.03.i, align 1, !tbaa !27
  %60 = zext i8 %59 to i64
  %61 = getelementptr inbounds nuw i64, ptr %3, i64 %60
  store i64 %57, ptr %61, align 8, !tbaa !18
  %62 = add nsw i32 %.0.i16, -1
  %.not.i = icmp eq i32 %62, 0
  br i1 %.not.i, label %inv_order_int64.exit, label %53

inv_order_int64.exit:                             ; preds = %53
  %63 = load i64, ptr %3, align 8, !tbaa !18
  %64 = getelementptr inbounds nuw i8, ptr %3, i64 8
  %65 = load i64, ptr %64, align 8, !tbaa !18
  %66 = getelementptr inbounds nuw i8, ptr %3, i64 16
  %67 = load i64, ptr %66, align 8, !tbaa !18
  %68 = getelementptr inbounds nuw i8, ptr %3, i64 24
  %69 = load i64, ptr %68, align 8, !tbaa !18
  %70 = add i64 %69, %67
  %71 = add i64 %67, %65
  %72 = add i64 %70, %71
  %73 = add i64 %65, %63
  %74 = add i64 %71, %73
  %75 = add i64 %72, %74
  store i64 %75, ptr %68, align 8, !tbaa !18
  store i64 %74, ptr %66, align 8, !tbaa !18
  store i64 %73, ptr %64, align 8, !tbaa !18
  call void @llvm.lifetime.end.p0(i64 32, ptr nonnull %5) #8
  ret i32 %.0
}